target datalayout = "e-m:e-p270:32:32-p271:32:32-p272:64:64-i64:64-i128:128-f80:128-n8:16:32:64-S128"
target triple = "x86_64-pc-linux-gnu"

@_ZTIN7Imf_3_45ImageE = external constant ptr
@_ZTIN7Imf_3_49FlatImageE = external constant ptr
@_ZTIN7Imf_3_49DeepImageE = external constant ptr

; Function Attrs: mustprogress uwtable
define void @_ZN7Imf_3_49saveImageERKNSt7__cxx1112basic_stringIcSt11char_traitsIcESaIcEEERKNS_6HeaderERKNS_5ImageENS_16DataWindowSourceE(ptr noundef nonnull align 8 dereferenceable(32) %0, ptr noundef nonnull align 8 dereferenceable(49) %1, ptr noundef nonnull align 8 dereferenceable(104) %2, i32 noundef %3) #6 {
  %5 = alloca ptr, align 8
  %6 = alloca ptr, align 8
  %7 = alloca ptr, align 8
  %8 = alloca i32, align 4
  %9 = alloca ptr, align 8
  %10 = alloca ptr, align 8
  store ptr %0, ptr %5, align 8, !tbaa !8
  store ptr %1, ptr %6, align 8, !tbaa !12
  store ptr %2, ptr %7, align 8, !tbaa !14
  store i32 %3, ptr %8, align 4, !tbaa !16
  call void @llvm.lifetime.start.p0(i64 8, ptr %9) #3
  %11 = load ptr, ptr %7, align 8, !tbaa !14
  %12 = icmp eq ptr %11, null
  br i1 %12, label %15, label %13

13:                                               ; preds = %4
  %14 = call ptr @__dynamic_cast(ptr %11, ptr @_ZTIN7Imf_3_45ImageE, ptr @_ZTIN7Imf_3_49FlatImageE, i64 0) #3
  br label %16

15:                                               ; preds = %4
  br label %16

16:                                               ; preds = %15, %13
  %17 = phi ptr [ %14, %13 ], [ null, %15 ]
  store ptr %17, ptr %9, align 8, !tbaa !18
  %18 = load ptr, ptr %9, align 8, !tbaa !18
  %19 = icmp ne ptr %18, null
  br i1 %19, label %20, label %38

20:                                               ; preds = %16
  %21 = load ptr, ptr %9, align 8, !tbaa !18
  %22 = call noundef i32 @_ZNK7Imf_3_45Image9levelModeEv(ptr noundef nonnull align 8 dereferenceable(104) %21)
  %23 = icmp ne i32 %22, 0
  br i1 %23, label %27, label %24

24:                                               ; preds = %20
  %25 = load ptr, ptr %6, align 8, !tbaa !12
  %26 = call noundef zeroext i1 @_ZNK7Imf_3_46Header18hasTileDescriptionEv(ptr noundef nonnull align 8 dereferenceable(49) %25)
  br i1 %26, label %27, label %32

27:                                               ; preds = %24, %20
  %28 = load ptr, ptr %5, align 8, !tbaa !8
  %29 = load ptr, ptr %6, align 8, !tbaa !12
  %30 = load ptr, ptr %9, align 8, !tbaa !18
  %31 = load i32, ptr %8, align 4, !tbaa !16
  call void @_ZN7Imf_3_418saveFlatTiledImageERKNSt7__cxx1112basic_stringIcSt11char_traitsIcESaIcEEERKNS_6HeaderERKNS_9FlatImageENS_16DataWindowSourceE(ptr noundef nonnull align 8 dereferenceable(32) %28, ptr noundef nonnull align 8 dereferenceable(49) %29, ptr noundef nonnull align 8 dereferenceable(104) %30, i32 noundef %31)
  br label %37

32:                                               ; preds = %24
  %33 = load ptr, ptr %5, align 8, !tbaa !8
  %34 = load ptr, ptr %6, align 8, !tbaa !12
  %35 = load ptr, ptr %9, align 8, !tbaa !18
  %36 = load i32, ptr %8, align 4, !tbaa !16
  call void @_ZN7Imf_3_421saveFlatScanLineImageERKNSt7__cxx1112basic_stringIcSt11char_traitsIcESaIcEEERKNS_6HeaderERKNS_9FlatImageENS_16DataWindowSourceE(ptr noundef nonnull align 8 dereferenceable(32) %33, ptr noundef nonnull align 8 dereferenceable(49) %34, ptr noundef nonnull align 8 dereferenceable(104) %35, i32 noundef %36)
  br label %37

37:                                               ; preds = %32, %27
  br label %38

38:                                               ; preds = %37, %16
  call void @llvm.lifetime.end.p0(i64 8, ptr %9) #3
  call void @llvm.lifetime.start.p0(i64 8, ptr %10) #3
  %39 = load ptr, ptr %7, align 8, !tbaa !14
  %40 = icmp eq ptr %39, null
  br i1 %40, label %43, label %41

41:                                               ; preds = %38
  %42 = call ptr @__dynamic_cast(ptr %39, ptr @_ZTIN7Imf_3_45ImageE, ptr @_ZTIN7Imf_3_49DeepImageE, i64 0) #3
  br label %44

43:                                               ; preds = %38
  br label %44

44:                                               ; preds = %43, %41
  %45 = phi ptr [ %42, %41 ], [ null, %43 ]
  store ptr %45, ptr %10, align 8, !tbaa !20
  %46 = load ptr, ptr %10, align 8, !tbaa !20
  %47 = icmp ne ptr %46, null
  br i1 %47, label %48, label %66

48:                                               ; preds = %44
  %49 = load ptr, ptr %10, align 8, !tbaa !20
  %50 = call noundef i32 @_ZNK7Imf_3_45Image9levelModeEv(ptr noundef nonnull align 8 dereferenceable(104) %49)
  %51 = icmp ne i32 %50, 0
  br i1 %51, label %55, label %52

52:                                               ; preds = %48
  %53 = load ptr, ptr %6, align 8, !tbaa !12
  %54 = call noundef zeroext i1 @_ZNK7Imf_3_46Header18hasTileDescriptionEv(ptr noundef nonnull align 8 dereferenceable(49) %53)
  br i1 %54, label %55, label %60

55:                                               ; preds = %52, %48
  %56 = load ptr, ptr %5, align 8, !tbaa !8
  %57 = load ptr, ptr %6, align 8, !tbaa !12
  %58 = load ptr, ptr %10, align 8, !tbaa !20
  %59 = load i32, ptr %8, align 4, !tbaa !16
  call void @_ZN7Imf_3_418saveDeepTiledImageERKNSt7__cxx1112basic_stringIcSt11char_traitsIcESaIcEEERKNS_6HeaderERKNS_9DeepImageENS_16DataWindowSourceE(ptr noundef nonnull align 8 dereferenceable(32) %56, ptr noundef nonnull align 8 dereferenceable(49) %57, ptr noundef nonnull align 8 dereferenceable(104) %58, i32 noundef %59)
  br label %65

60:                                               ; preds = %52
  %61 = load ptr, ptr %5, align 8, !tbaa !8
  %62 = load ptr, ptr %6, align 8, !tbaa !12
  %63 = load ptr, ptr %10, align 8, !tbaa !20
  %64 = load i32, ptr %8, align 4, !tbaa !16
  call void @_ZN7Imf_3_421saveDeepScanLineImageERKNSt7__cxx1112basic_stringIcSt11char_traitsIcESaIcEEERKNS_6HeaderERKNS_9DeepImageENS_16DataWindowSourceE(ptr noundef nonnull align 8 dereferenceable(32) %61, ptr noundef nonnull align 8 dereferenceable(49) %62, ptr noundef nonnull align 8 dereferenceable(104) %63, i32 noundef %64)
  br label %65

65:                                               ; preds = %60, %55
  br label %66

66:                                               ; preds = %65, %44
  call void @llvm.lifetime.end.p0(i64 8, ptr %10) #3
  ret void
}