; Function Attrs: mustprogress uwtable
define void @_ZN7Imf_3_49saveImageERKNSt7__cxx1112basic_stringIcSt11char_traitsIcESaIcEEERKNS_6HeaderERKNS_5ImageENS_16DataWindowSourceE(ptr noundef nonnull align 8 dereferenceable(32) %0, ptr noundef nonnull align 8 dereferenceable(49) %1, ptr noundef nonnull align 8 dereferenceable(104) %2, i32 noundef %3) local_unnamed_addr #5 {
  %5 = tail call ptr @__dynamic_cast(ptr nonnull %2, ptr nonnull @_ZTIN7Imf_3_45ImageE, ptr nonnull @_ZTIN7Imf_3_49FlatImageE, i64 0) #16
  %.not = icmp eq ptr %5, null
  br i1 %.not, label %12, label %6

6:                                                ; preds = %4
  %7 = tail call noundef i32 @_ZNK7Imf_3_45Image9levelModeEv(ptr noundef nonnull align 8 dereferenceable(104) %5)
  %.not24 = icmp eq i32 %7, 0
  br i1 %.not24, label %8, label %10

8:                                                ; preds = %6
  %9 = tail call noundef zeroext i1 @_ZNK7Imf_3_46Header18hasTileDescriptionEv(ptr noundef nonnull align 8 dereferenceable(49) %1)
  br i1 %9, label %10, label %11

10:                                               ; preds = %8, %6
  tail call void @_ZN7Imf_3_418saveFlatTiledImageERKNSt7__cxx1112basic_stringIcSt11char_traitsIcESaIcEEERKNS_6HeaderERKNS_9FlatImageENS_16DataWindowSourceE(ptr noundef nonnull align 8 dereferenceable(32) %0, ptr noundef nonnull align 8 dereferenceable(49) %1, ptr noundef nonnull align 8 dereferenceable(104) %5, i32 noundef %3)
  br label %12

11:                                               ; preds = %8
  tail call void @_ZN7Imf_3_421saveFlatScanLineImageERKNSt7__cxx1112basic_stringIcSt11char_traitsIcESaIcEEERKNS_6HeaderERKNS_9FlatImageENS_16DataWindowSourceE(ptr noundef nonnull align 8 dereferenceable(32) %0, ptr noundef nonnull align 8 dereferenceable(49) %1, ptr noundef nonnull align 8 dereferenceable(104) %5, i32 noundef %3)
  br label %12

12:                                               ; preds = %4, %11, %10
  %13 = tail call ptr @__dynamic_cast(ptr nonnull %2, ptr nonnull @_ZTIN7Imf_3_45ImageE, ptr nonnull @_ZTIN7Imf_3_49DeepImageE, i64 0) #16
  %.not25 = icmp eq ptr %13, null
  br i1 %.not25, label %20, label %14

14:                                               ; preds = %12
  %15 = tail call noundef i32 @_ZNK7Imf_3_45Image9levelModeEv(ptr noundef nonnull align 8 dereferenceable(104) %13)
  %.not26 = icmp eq i32 %15, 0
  br i1 %.not26, label %16, label %18

16:                                               ; preds = %14
  %17 = tail call noundef zeroext i1 @_ZNK7Imf_3_46Header18hasTileDescriptionEv(ptr noundef nonnull align 8 dereferenceable(49) %1)
  br i1 %17, label %18, label %19

18:                                               ; preds = %16, %14
  tail call void @_ZN7Imf_3_418saveDeepTiledImageERKNSt7__cxx1112basic_stringIcSt11char_traitsIcESaIcEEERKNS_6HeaderERKNS_9DeepImageENS_16DataWindowSourceE(ptr noundef nonnull align 8 dereferenceable(32) %0, ptr noundef nonnull align 8 dereferenceable(49) %1, ptr noundef nonnull align 8 dereferenceable(104) %13, i32 noundef %3)
  br label %20

19:                                               ; preds = %16
  tail call void @_ZN7Imf_3_421saveDeepScanLineImageERKNSt7__cxx1112basic_stringIcSt11char_traitsIcESaIcEEERKNS_6HeaderERKNS_9DeepImageENS_16DataWindowSourceE(ptr noundef nonnull align 8 dereferenceable(32) %0, ptr noundef nonnull align 8 dereferenceable(49) %1, ptr noundef nonnull align 8 dereferenceable(104) %13, i32 noundef %3)
  br label %20

20:                                               ; preds = %18, %19, %12
  ret void
}